; Function Attrs: mustprogress uwtable
define hidden noundef i32 @_ZNK4cvc58internal6theory11quantifiers12InstStrategy18getInstUserPatModeEv(ptr noundef nonnull align 8 dereferenceable(56) %this) local_unnamed_addr #3 align 2 {
entry:
  %call = tail call noundef nonnull align 8 dereferenceable(392) ptr @_ZNK4cvc58internal6EnvObj7optionsEv(ptr noundef nonnull align 8 dereferenceable(16) %this)
  %quantifiers = getelementptr inbounds i8, ptr %call, i64 328
  %0 = load ptr, ptr %quantifiers, align 8
  %userPatternsQuant = getelementptr inbounds i8, ptr %0, i64 748
  %1 = load i32, ptr %userPatternsQuant, align 4
  %cmp = icmp eq i32 %1, 5
  br i1 %cmp, label %if.then, label %if.end

if.then:                                          ; preds = %entry
  %d_qstate = getelementptr inbounds i8, ptr %this, i64 24
  %2 = load ptr, ptr %d_qstate, align 8
  %call2 = tail call noundef i64 @_ZNK4cvc58internal6theory11quantifiers16QuantifiersState13getInstRoundsEv(ptr noundef nonnull align 8 dereferenceable(248) %2)
  %rem = and i64 %call2, 1
  %cmp3 = icmp eq i64 %rem, 0
  %cond = select i1 %cmp3, i32 0, i32 3
  br label %return

if.end:                                           ; preds = %entry
  %call4 = tail call noundef nonnull align 8 dereferenceable(392) ptr @_ZNK4cvc58internal6EnvObj7optionsEv(ptr noundef nonnull align 8 dereferenceable(16) %this)
  %quantifiers5 = getelementptr inbounds i8, ptr %call4, i64 328
  %3 = load ptr, ptr %quantifiers5, align 8
  %userPatternsQuant6 = getelementptr inbounds i8, ptr %3, i64 748
  %4 = load i32, ptr %userPatternsQuant6, align 4
  br label %return

return:                                           ; preds = %if.end, %if.then
  %retval.0 = phi i32 [ %cond, %if.then ], [ %4, %if.end ]
  ret i32 %retval.0
}